target datalayout = "e-m:e-p270:32:32-p271:32:32-p272:64:64-i64:64-i128:128-f80:128-n8:16:32:64-S128"
target triple = "x86_64-pc-linux-gnu"

%struct.PyCompilerFlags = type { i32, i32 }
%struct._PyCompiler = type { ptr, ptr, %struct._PyFutureFeatures, %struct.PyCompilerFlags, i32, i32, ptr, ptr, ptr, i8 }
%struct._PyFutureFeatures = type { i32, %struct._Py_SourceLocation }
%struct._Py_SourceLocation = type { i32, i32, i32, i32 }
%struct.compiler_unit = type { ptr, i32, ptr, ptr, ptr, ptr, i32, i32, [21 x %struct._PyCompile_FBlockInfo], %struct._PyCompile_CodeUnitMetadata }
%struct._PyCompile_FBlockInfo = type { i32, %struct._PyJumpTargetLabel, %struct._Py_SourceLocation, %struct._PyJumpTargetLabel, ptr }
%struct._PyJumpTargetLabel = type { i32 }
%struct._PyCompile_CodeUnitMetadata = type { ptr, ptr, ptr, ptr, ptr, ptr, ptr, ptr, i64, i64, i64, i32 }

; Function Attrs: nounwind uwtable
define internal i32 @dict_lookup_arg(ptr noundef %0, ptr noundef %1) #0 {
  %3 = alloca i32, align 4
  %4 = alloca ptr, align 8
  %5 = alloca ptr, align 8
  %6 = alloca ptr, align 8
  %7 = alloca i32, align 4
  store ptr %0, ptr %4, align 8, !tbaa !32
  store ptr %1, ptr %5, align 8, !tbaa !32
  call void @llvm.lifetime.start.p0(i64 8, ptr %6) #8
  %8 = load ptr, ptr %4, align 8, !tbaa !32
  %9 = load ptr, ptr %5, align 8, !tbaa !32
  %10 = call ptr @PyDict_GetItemWithError(ptr noundef %8, ptr noundef %9)
  store ptr %10, ptr %6, align 8, !tbaa !32
  %11 = load ptr, ptr %6, align 8, !tbaa !32
  %12 = icmp eq ptr %11, null
  br i1 %12, label %13, label %14

13:                                               ; preds = %2
  store i32 -1, ptr %3, align 4
  store i32 1, ptr %7, align 4
  br label %18

14:                                               ; preds = %2
  %15 = load ptr, ptr %6, align 8, !tbaa !32
  %16 = call i64 @PyLong_AsLong(ptr noundef %15)
  %17 = trunc i64 %16 to i32
  store i32 %17, ptr %3, align 4
  store i32 1, ptr %7, align 4
  br label %18

18:                                               ; preds = %14, %13
  call void @llvm.lifetime.end.p0(i64 8, ptr %6) #8
  %19 = load i32, ptr %3, align 4
  ret i32 %19
}

; Function Attrs: nounwind uwtable
define hidden i32 @_PyCompile_LookupCellvar(ptr noundef %0, ptr noundef %1) #0 {
  %3 = alloca ptr, align 8
  %4 = alloca ptr, align 8
  store ptr %0, ptr %3, align 8, !tbaa !4
  store ptr %1, ptr %4, align 8, !tbaa !32
  %5 = load ptr, ptr %3, align 8, !tbaa !4
  %6 = getelementptr inbounds nuw %struct._PyCompiler, ptr %5, i32 0, i32 7
  %7 = load ptr, ptr %6, align 8, !tbaa !48
  %8 = getelementptr inbounds nuw %struct.compiler_unit, ptr %7, i32 0, i32 9
  %9 = getelementptr inbounds nuw %struct._PyCompile_CodeUnitMetadata, ptr %8, i32 0, i32 5
  %10 = load ptr, ptr %9, align 8, !tbaa !63
  %11 = load ptr, ptr %4, align 8, !tbaa !32
  %12 = call i32 @dict_lookup_arg(ptr noundef %10, ptr noundef %11)
  ret i32 %12
}