; Function Attrs: nounwind uwtable
define hidden i32 @_PyCompile_LookupCellvar(ptr noundef readonly captures(none) %0, ptr noundef %1) local_unnamed_addr #0 {
  %3 = getelementptr inbounds nuw i8, ptr %0, i64 64
  %4 = load ptr, ptr %3, align 8, !tbaa !42
  %5 = getelementptr inbounds nuw i8, ptr %4, i64 936
  %6 = load ptr, ptr %5, align 8, !tbaa !56
  %7 = tail call ptr @PyDict_GetItemWithError(ptr noundef %6, ptr noundef %1) #11
  %8 = icmp eq ptr %7, null
  br i1 %8, label %dict_lookup_arg.exit, label %9

9:                                                ; preds = %2
  %10 = tail call i64 @PyLong_AsLong(ptr noundef nonnull %7) #11
  %11 = trunc i64 %10 to i32
  br label %dict_lookup_arg.exit

dict_lookup_arg.exit:                             ; preds = %2, %9
  %.0.i = phi i32 [ %11, %9 ], [ -1, %2 ]
  ret i32 %.0.i
}